
bomb:     file format elf64-x86-64


Disassembly of section .init:

0000000000000978 <_init>:
 978:	48 83 ec 08          	sub    $0x8,%rsp
 97c:	48 8b 05 65 16 20 00 	mov    0x201665(%rip),%rax        # 201fe8 <__gmon_start__>
 983:	48 85 c0             	test   %rax,%rax
 986:	74 02                	je     98a <_init+0x12>
 988:	ff d0                	callq  *%rax
 98a:	48 83 c4 08          	add    $0x8,%rsp
 98e:	c3                   	retq   

Disassembly of section .plt:

0000000000000990 <.plt>:
 990:	ff 35 92 15 20 00    	pushq  0x201592(%rip)        # 201f28 <_GLOBAL_OFFSET_TABLE_+0x8>
 996:	ff 25 94 15 20 00    	jmpq   *0x201594(%rip)        # 201f30 <_GLOBAL_OFFSET_TABLE_+0x10>
 99c:	0f 1f 40 00          	nopl   0x0(%rax)

00000000000009a0 <__errno_location@plt>:
 9a0:	ff 25 92 15 20 00    	jmpq   *0x201592(%rip)        # 201f38 <__errno_location@GLIBC_2.2.5>
 9a6:	68 00 00 00 00       	pushq  $0x0
 9ab:	e9 e0 ff ff ff       	jmpq   990 <.plt>

00000000000009b0 <puts@plt>:
 9b0:	ff 25 8a 15 20 00    	jmpq   *0x20158a(%rip)        # 201f40 <puts@GLIBC_2.2.5>
 9b6:	68 01 00 00 00       	pushq  $0x1
 9bb:	e9 d0 ff ff ff       	jmpq   990 <.plt>

00000000000009c0 <write@plt>:
 9c0:	ff 25 82 15 20 00    	jmpq   *0x201582(%rip)        # 201f48 <write@GLIBC_2.2.5>
 9c6:	68 02 00 00 00       	pushq  $0x2
 9cb:	e9 c0 ff ff ff       	jmpq   990 <.plt>

00000000000009d0 <ctime@plt>:
 9d0:	ff 25 7a 15 20 00    	jmpq   *0x20157a(%rip)        # 201f50 <ctime@GLIBC_2.2.5>
 9d6:	68 03 00 00 00       	pushq  $0x3
 9db:	e9 b0 ff ff ff       	jmpq   990 <.plt>

00000000000009e0 <strlen@plt>:
 9e0:	ff 25 72 15 20 00    	jmpq   *0x201572(%rip)        # 201f58 <strlen@GLIBC_2.2.5>
 9e6:	68 04 00 00 00       	pushq  $0x4
 9eb:	e9 a0 ff ff ff       	jmpq   990 <.plt>

00000000000009f0 <__stack_chk_fail@plt>:
 9f0:	ff 25 6a 15 20 00    	jmpq   *0x20156a(%rip)        # 201f60 <__stack_chk_fail@GLIBC_2.4>
 9f6:	68 05 00 00 00       	pushq  $0x5
 9fb:	e9 90 ff ff ff       	jmpq   990 <.plt>

0000000000000a00 <printf@plt>:
 a00:	ff 25 62 15 20 00    	jmpq   *0x201562(%rip)        # 201f68 <printf@GLIBC_2.2.5>
 a06:	68 06 00 00 00       	pushq  $0x6
 a0b:	e9 80 ff ff ff       	jmpq   990 <.plt>

0000000000000a10 <close@plt>:
 a10:	ff 25 5a 15 20 00    	jmpq   *0x20155a(%rip)        # 201f70 <close@GLIBC_2.2.5>
 a16:	68 07 00 00 00       	pushq  $0x7
 a1b:	e9 70 ff ff ff       	jmpq   990 <.plt>

0000000000000a20 <fprintf@plt>:
 a20:	ff 25 52 15 20 00    	jmpq   *0x201552(%rip)        # 201f78 <fprintf@GLIBC_2.2.5>
 a26:	68 08 00 00 00       	pushq  $0x8
 a2b:	e9 60 ff ff ff       	jmpq   990 <.plt>

0000000000000a30 <umask@plt>:
 a30:	ff 25 4a 15 20 00    	jmpq   *0x20154a(%rip)        # 201f80 <umask@GLIBC_2.2.5>
 a36:	68 09 00 00 00       	pushq  $0x9
 a3b:	e9 50 ff ff ff       	jmpq   990 <.plt>

0000000000000a40 <time@plt>:
 a40:	ff 25 42 15 20 00    	jmpq   *0x201542(%rip)        # 201f88 <time@GLIBC_2.2.5>
 a46:	68 0a 00 00 00       	pushq  $0xa
 a4b:	e9 40 ff ff ff       	jmpq   990 <.plt>

0000000000000a50 <__xstat@plt>:
 a50:	ff 25 3a 15 20 00    	jmpq   *0x20153a(%rip)        # 201f90 <__xstat@GLIBC_2.2.5>
 a56:	68 0b 00 00 00       	pushq  $0xb
 a5b:	e9 30 ff ff ff       	jmpq   990 <.plt>

0000000000000a60 <open@plt>:
 a60:	ff 25 32 15 20 00    	jmpq   *0x201532(%rip)        # 201f98 <open@GLIBC_2.2.5>
 a66:	68 0c 00 00 00       	pushq  $0xc
 a6b:	e9 20 ff ff ff       	jmpq   990 <.plt>

0000000000000a70 <fopen@plt>:
 a70:	ff 25 2a 15 20 00    	jmpq   *0x20152a(%rip)        # 201fa0 <fopen@GLIBC_2.2.5>
 a76:	68 0d 00 00 00       	pushq  $0xd
 a7b:	e9 10 ff ff ff       	jmpq   990 <.plt>

0000000000000a80 <atoi@plt>:
 a80:	ff 25 22 15 20 00    	jmpq   *0x201522(%rip)        # 201fa8 <atoi@GLIBC_2.2.5>
 a86:	68 0e 00 00 00       	pushq  $0xe
 a8b:	e9 00 ff ff ff       	jmpq   990 <.plt>

0000000000000a90 <getline@plt>:
 a90:	ff 25 1a 15 20 00    	jmpq   *0x20151a(%rip)        # 201fb0 <getline@GLIBC_2.2.5>
 a96:	68 0f 00 00 00       	pushq  $0xf
 a9b:	e9 f0 fe ff ff       	jmpq   990 <.plt>

0000000000000aa0 <sprintf@plt>:
 aa0:	ff 25 12 15 20 00    	jmpq   *0x201512(%rip)        # 201fb8 <sprintf@GLIBC_2.2.5>
 aa6:	68 10 00 00 00       	pushq  $0x10
 aab:	e9 e0 fe ff ff       	jmpq   990 <.plt>

0000000000000ab0 <exit@plt>:
 ab0:	ff 25 0a 15 20 00    	jmpq   *0x20150a(%rip)        # 201fc0 <exit@GLIBC_2.2.5>
 ab6:	68 11 00 00 00       	pushq  $0x11
 abb:	e9 d0 fe ff ff       	jmpq   990 <.plt>

0000000000000ac0 <fwrite@plt>:
 ac0:	ff 25 02 15 20 00    	jmpq   *0x201502(%rip)        # 201fc8 <fwrite@GLIBC_2.2.5>
 ac6:	68 12 00 00 00       	pushq  $0x12
 acb:	e9 c0 fe ff ff       	jmpq   990 <.plt>

0000000000000ad0 <strerror@plt>:
 ad0:	ff 25 fa 14 20 00    	jmpq   *0x2014fa(%rip)        # 201fd0 <strerror@GLIBC_2.2.5>
 ad6:	68 13 00 00 00       	pushq  $0x13
 adb:	e9 b0 fe ff ff       	jmpq   990 <.plt>

Disassembly of section .plt.got:

0000000000000ae0 <__cxa_finalize@plt>:
 ae0:	ff 25 12 15 20 00    	jmpq   *0x201512(%rip)        # 201ff8 <__cxa_finalize@GLIBC_2.2.5>
 ae6:	66 90                	xchg   %ax,%ax

Disassembly of section .text:

0000000000000af0 <_start>:
     af0:	31 ed                	xor    %ebp,%ebp
     af2:	49 89 d1             	mov    %rdx,%r9
     af5:	5e                   	pop    %rsi
     af6:	48 89 e2             	mov    %rsp,%rdx
     af9:	48 83 e4 f0          	and    $0xfffffffffffffff0,%rsp
     afd:	50                   	push   %rax
     afe:	54                   	push   %rsp
     aff:	4c 8d 05 da 05 00 00 	lea    0x5da(%rip),%r8        # 10e0 <__libc_csu_fini>
     b06:	48 8d 0d 63 05 00 00 	lea    0x563(%rip),%rcx        # 1070 <__libc_csu_init>
     b0d:	48 8d 3d 3b 04 00 00 	lea    0x43b(%rip),%rdi        # f4f <main>
     b14:	ff 15 c6 14 20 00    	callq  *0x2014c6(%rip)        # 201fe0 <__libc_start_main@GLIBC_2.2.5>
     b1a:	f4                   	hlt    
     b1b:	0f 1f 44 00 00       	nopl   0x0(%rax,%rax,1)

0000000000000b20 <deregister_tm_clones>:
     b20:	48 8d 3d e9 14 20 00 	lea    0x2014e9(%rip),%rdi        # 202010 <__TMC_END__>
     b27:	55                   	push   %rbp
     b28:	48 8d 05 e1 14 20 00 	lea    0x2014e1(%rip),%rax        # 202010 <__TMC_END__>
     b2f:	48 39 f8             	cmp    %rdi,%rax
     b32:	48 89 e5             	mov    %rsp,%rbp
     b35:	74 19                	je     b50 <deregister_tm_clones+0x30>
     b37:	48 8b 05 9a 14 20 00 	mov    0x20149a(%rip),%rax        # 201fd8 <_ITM_deregisterTMCloneTable>
     b3e:	48 85 c0             	test   %rax,%rax
     b41:	74 0d                	je     b50 <deregister_tm_clones+0x30>
     b43:	5d                   	pop    %rbp
     b44:	ff e0                	jmpq   *%rax
     b46:	66 2e 0f 1f 84 00 00 	nopw   %cs:0x0(%rax,%rax,1)
     b4d:	00 00 00 
     b50:	5d                   	pop    %rbp
     b51:	c3                   	retq   
     b52:	0f 1f 40 00          	nopl   0x0(%rax)
     b56:	66 2e 0f 1f 84 00 00 	nopw   %cs:0x0(%rax,%rax,1)
     b5d:	00 00 00 

0000000000000b60 <register_tm_clones>:
     b60:	48 8d 3d a9 14 20 00 	lea    0x2014a9(%rip),%rdi        # 202010 <__TMC_END__>
     b67:	48 8d 35 a2 14 20 00 	lea    0x2014a2(%rip),%rsi        # 202010 <__TMC_END__>
     b6e:	55                   	push   %rbp
     b6f:	48 29 fe             	sub    %rdi,%rsi
     b72:	48 89 e5             	mov    %rsp,%rbp
     b75:	48 c1 fe 03          	sar    $0x3,%rsi
     b79:	48 89 f0             	mov    %rsi,%rax
     b7c:	48 c1 e8 3f          	shr    $0x3f,%rax
     b80:	48 01 c6             	add    %rax,%rsi
     b83:	48 d1 fe             	sar    %rsi
     b86:	74 18                	je     ba0 <register_tm_clones+0x40>
     b88:	48 8b 05 61 14 20 00 	mov    0x201461(%rip),%rax        # 201ff0 <_ITM_registerTMCloneTable>
     b8f:	48 85 c0             	test   %rax,%rax
     b92:	74 0c                	je     ba0 <register_tm_clones+0x40>
     b94:	5d                   	pop    %rbp
     b95:	ff e0                	jmpq   *%rax
     b97:	66 0f 1f 84 00 00 00 	nopw   0x0(%rax,%rax,1)
     b9e:	00 00 
     ba0:	5d                   	pop    %rbp
     ba1:	c3                   	retq   
     ba2:	0f 1f 40 00          	nopl   0x0(%rax)
     ba6:	66 2e 0f 1f 84 00 00 	nopw   %cs:0x0(%rax,%rax,1)
     bad:	00 00 00 

0000000000000bb0 <__do_global_dtors_aux>:
     bb0:	80 3d 71 14 20 00 00 	cmpb   $0x0,0x201471(%rip)        # 202028 <completed.7698>
     bb7:	75 2f                	jne    be8 <__do_global_dtors_aux+0x38>
     bb9:	48 83 3d 37 14 20 00 	cmpq   $0x0,0x201437(%rip)        # 201ff8 <__cxa_finalize@GLIBC_2.2.5>
     bc0:	00 
     bc1:	55                   	push   %rbp
     bc2:	48 89 e5             	mov    %rsp,%rbp
     bc5:	74 0c                	je     bd3 <__do_global_dtors_aux+0x23>
     bc7:	48 8b 3d 3a 14 20 00 	mov    0x20143a(%rip),%rdi        # 202008 <__dso_handle>
     bce:	e8 0d ff ff ff       	callq  ae0 <__cxa_finalize@plt>
     bd3:	e8 48 ff ff ff       	callq  b20 <deregister_tm_clones>
     bd8:	c6 05 49 14 20 00 01 	movb   $0x1,0x201449(%rip)        # 202028 <completed.7698>
     bdf:	5d                   	pop    %rbp
     be0:	c3                   	retq   
     be1:	0f 1f 80 00 00 00 00 	nopl   0x0(%rax)
     be8:	f3 c3                	repz retq 
     bea:	66 0f 1f 44 00 00    	nopw   0x0(%rax,%rax,1)

0000000000000bf0 <frame_dummy>:
     bf0:	55                   	push   %rbp
     bf1:	48 89 e5             	mov    %rsp,%rbp
     bf4:	5d                   	pop    %rbp
     bf5:	e9 66 ff ff ff       	jmpq   b60 <register_tm_clones>

0000000000000bfa <unix_error>:
     bfa:	55                   	push   %rbp
     bfb:	48 89 e5             	mov    %rsp,%rbp
     bfe:	48 83 ec 10          	sub    $0x10,%rsp
     c02:	48 89 7d f8          	mov    %rdi,-0x8(%rbp)
     c06:	e8 95 fd ff ff       	callq  9a0 <__errno_location@plt>
     c0b:	8b 00                	mov    (%rax),%eax
     c0d:	89 c7                	mov    %eax,%edi
     c0f:	e8 bc fe ff ff       	callq  ad0 <strerror@plt>
     c14:	48 89 c1             	mov    %rax,%rcx
     c17:	48 8b 05 02 14 20 00 	mov    0x201402(%rip),%rax        # 202020 <stderr@@GLIBC_2.2.5>
     c1e:	48 8b 55 f8          	mov    -0x8(%rbp),%rdx
     c22:	48 8d 35 17 07 00 00 	lea    0x717(%rip),%rsi        # 1340 <FNAME+0x100>
     c29:	48 89 c7             	mov    %rax,%rdi
     c2c:	b8 00 00 00 00       	mov    $0x0,%eax
     c31:	e8 ea fd ff ff       	callq  a20 <fprintf@plt>
     c36:	bf 01 00 00 00       	mov    $0x1,%edi
     c3b:	e8 70 fe ff ff       	callq  ab0 <exit@plt>

0000000000000c40 <Open>:
     c40:	55                   	push   %rbp
     c41:	48 89 e5             	mov    %rsp,%rbp
     c44:	48 83 ec 20          	sub    $0x20,%rsp
     c48:	48 89 7d e8          	mov    %rdi,-0x18(%rbp)
     c4c:	89 75 e4             	mov    %esi,-0x1c(%rbp)
     c4f:	89 55 e0             	mov    %edx,-0x20(%rbp)
     c52:	8b 55 e0             	mov    -0x20(%rbp),%edx
     c55:	8b 4d e4             	mov    -0x1c(%rbp),%ecx
     c58:	48 8b 45 e8          	mov    -0x18(%rbp),%rax
     c5c:	89 ce                	mov    %ecx,%esi
     c5e:	48 89 c7             	mov    %rax,%rdi
     c61:	b8 00 00 00 00       	mov    $0x0,%eax
     c66:	e8 f5 fd ff ff       	callq  a60 <open@plt>
     c6b:	89 45 fc             	mov    %eax,-0x4(%rbp)
     c6e:	83 7d fc 00          	cmpl   $0x0,-0x4(%rbp)
     c72:	79 0c                	jns    c80 <Open+0x40>
     c74:	48 8d 3d cd 06 00 00 	lea    0x6cd(%rip),%rdi        # 1348 <FNAME+0x108>
     c7b:	e8 7a ff ff ff       	callq  bfa <unix_error>
     c80:	8b 45 fc             	mov    -0x4(%rbp),%eax
     c83:	c9                   	leaveq 
     c84:	c3                   	retq   

0000000000000c85 <Close>:
     c85:	55                   	push   %rbp
     c86:	48 89 e5             	mov    %rsp,%rbp
     c89:	48 83 ec 20          	sub    $0x20,%rsp
     c8d:	89 7d ec             	mov    %edi,-0x14(%rbp)
     c90:	8b 45 ec             	mov    -0x14(%rbp),%eax
     c93:	89 c7                	mov    %eax,%edi
     c95:	e8 76 fd ff ff       	callq  a10 <close@plt>
     c9a:	89 45 fc             	mov    %eax,-0x4(%rbp)
     c9d:	83 7d fc 00          	cmpl   $0x0,-0x4(%rbp)
     ca1:	79 0c                	jns    caf <Close+0x2a>
     ca3:	48 8d 3d a9 06 00 00 	lea    0x6a9(%rip),%rdi        # 1353 <FNAME+0x113>
     caa:	e8 4b ff ff ff       	callq  bfa <unix_error>
     caf:	90                   	nop
     cb0:	c9                   	leaveq 
     cb1:	c3                   	retq   

0000000000000cb2 <WriteStr>:
     cb2:	55                   	push   %rbp
     cb3:	48 89 e5             	mov    %rsp,%rbp
     cb6:	48 83 ec 20          	sub    $0x20,%rsp
     cba:	89 7d ec             	mov    %edi,-0x14(%rbp)
     cbd:	48 89 75 e0          	mov    %rsi,-0x20(%rbp)
     cc1:	48 8b 45 e0          	mov    -0x20(%rbp),%rax
     cc5:	48 89 c7             	mov    %rax,%rdi
     cc8:	e8 13 fd ff ff       	callq  9e0 <strlen@plt>
     ccd:	48 89 45 f0          	mov    %rax,-0x10(%rbp)
     cd1:	48 8b 55 f0          	mov    -0x10(%rbp),%rdx
     cd5:	48 8b 4d e0          	mov    -0x20(%rbp),%rcx
     cd9:	8b 45 ec             	mov    -0x14(%rbp),%eax
     cdc:	48 89 ce             	mov    %rcx,%rsi
     cdf:	89 c7                	mov    %eax,%edi
     ce1:	e8 da fc ff ff       	callq  9c0 <write@plt>
     ce6:	48 89 45 f8          	mov    %rax,-0x8(%rbp)
     cea:	48 83 7d f8 00       	cmpq   $0x0,-0x8(%rbp)
     cef:	79 0c                	jns    cfd <WriteStr+0x4b>
     cf1:	48 8d 3d 67 06 00 00 	lea    0x667(%rip),%rdi        # 135f <FNAME+0x11f>
     cf8:	e8 fd fe ff ff       	callq  bfa <unix_error>
     cfd:	48 8b 45 f8          	mov    -0x8(%rbp),%rax
     d01:	c9                   	leaveq 
     d02:	c3                   	retq   

0000000000000d03 <file_exists>:
     d03:	55                   	push   %rbp
     d04:	48 89 e5             	mov    %rsp,%rbp
     d07:	48 81 ec b0 00 00 00 	sub    $0xb0,%rsp
     d0e:	48 89 bd 58 ff ff ff 	mov    %rdi,-0xa8(%rbp)
     d15:	64 48 8b 04 25 28 00 	mov    %fs:0x28,%rax
     d1c:	00 00 
     d1e:	48 89 45 f8          	mov    %rax,-0x8(%rbp)
     d22:	31 c0                	xor    %eax,%eax
     d24:	48 8d 95 60 ff ff ff 	lea    -0xa0(%rbp),%rdx
     d2b:	48 8b 85 58 ff ff ff 	mov    -0xa8(%rbp),%rax
     d32:	48 89 d6             	mov    %rdx,%rsi
     d35:	48 89 c7             	mov    %rax,%rdi
     d38:	e8 b3 03 00 00       	callq  10f0 <__stat>
     d3d:	85 c0                	test   %eax,%eax
     d3f:	0f 94 c0             	sete   %al
     d42:	0f b6 c0             	movzbl %al,%eax
     d45:	48 8b 4d f8          	mov    -0x8(%rbp),%rcx
     d49:	64 48 33 0c 25 28 00 	xor    %fs:0x28,%rcx
     d50:	00 00 
     d52:	74 05                	je     d59 <file_exists+0x56>
     d54:	e8 97 fc ff ff       	callq  9f0 <__stack_chk_fail@plt>
     d59:	c9                   	leaveq 
     d5a:	c3                   	retq   

0000000000000d5b <create_or_append_for_writing>:
     d5b:	55                   	push   %rbp
     d5c:	48 89 e5             	mov    %rsp,%rbp
     d5f:	48 83 ec 20          	sub    $0x20,%rsp
     d63:	48 89 7d e8          	mov    %rdi,-0x18(%rbp)
     d67:	c7 45 fc ff ff ff ff 	movl   $0xffffffff,-0x4(%rbp)
     d6e:	48 8b 45 e8          	mov    -0x18(%rbp),%rax
     d72:	48 89 c7             	mov    %rax,%rdi
     d75:	e8 89 ff ff ff       	callq  d03 <file_exists>
     d7a:	85 c0                	test   %eax,%eax
     d7c:	74 1b                	je     d99 <create_or_append_for_writing+0x3e>
     d7e:	48 8b 45 e8          	mov    -0x18(%rbp),%rax
     d82:	ba 00 00 00 00       	mov    $0x0,%edx
     d87:	be 01 04 00 00       	mov    $0x401,%esi
     d8c:	48 89 c7             	mov    %rax,%rdi
     d8f:	e8 ac fe ff ff       	callq  c40 <Open>
     d94:	89 45 fc             	mov    %eax,-0x4(%rbp)
     d97:	eb 23                	jmp    dbc <create_or_append_for_writing+0x61>
     d99:	bf 12 00 00 00       	mov    $0x12,%edi
     d9e:	e8 8d fc ff ff       	callq  a30 <umask@plt>
     da3:	48 8b 45 e8          	mov    -0x18(%rbp),%rax
     da7:	ba b6 01 00 00       	mov    $0x1b6,%edx
     dac:	be 41 02 00 00       	mov    $0x241,%esi
     db1:	48 89 c7             	mov    %rax,%rdi
     db4:	e8 87 fe ff ff       	callq  c40 <Open>
     db9:	89 45 fc             	mov    %eax,-0x4(%rbp)
     dbc:	8b 45 fc             	mov    -0x4(%rbp),%eax
     dbf:	c9                   	leaveq 
     dc0:	c3                   	retq   

0000000000000dc1 <print_greeting>:
     dc1:	55                   	push   %rbp
     dc2:	48 89 e5             	mov    %rsp,%rbp
     dc5:	48 8d 3d a4 05 00 00 	lea    0x5a4(%rip),%rdi        # 1370 <FNAME+0x130>
     dcc:	e8 df fb ff ff       	callq  9b0 <puts@plt>
     dd1:	90                   	nop
     dd2:	5d                   	pop    %rbp
     dd3:	c3                   	retq   

0000000000000dd4 <populate_time_str>:
     dd4:	55                   	push   %rbp
     dd5:	48 89 e5             	mov    %rsp,%rbp
     dd8:	48 83 ec 10          	sub    $0x10,%rsp
     ddc:	48 89 7d f8          	mov    %rdi,-0x8(%rbp)
     de0:	48 8d 3d eb 05 00 00 	lea    0x5eb(%rip),%rdi        # 13d2 <FNAME+0x192>
     de7:	e8 c4 fb ff ff       	callq  9b0 <puts@plt>
     dec:	bf 00 00 00 00       	mov    $0x0,%edi
     df1:	e8 4a fc ff ff       	callq  a40 <time@plt>
     df6:	48 89 05 4b 13 20 00 	mov    %rax,0x20134b(%rip)        # 202148 <current_time>
     dfd:	48 8b 05 44 13 20 00 	mov    0x201344(%rip),%rax        # 202148 <current_time>
     e04:	48 83 f8 ff          	cmp    $0xffffffffffffffff,%rax
     e08:	75 2a                	jne    e34 <populate_time_str+0x60>
     e0a:	48 8b 05 0f 12 20 00 	mov    0x20120f(%rip),%rax        # 202020 <stderr@@GLIBC_2.2.5>
     e11:	48 89 c1             	mov    %rax,%rcx
     e14:	ba 24 00 00 00       	mov    $0x24,%edx
     e19:	be 01 00 00 00       	mov    $0x1,%esi
     e1e:	48 8d 3d c3 05 00 00 	lea    0x5c3(%rip),%rdi        # 13e8 <FNAME+0x1a8>
     e25:	e8 96 fc ff ff       	callq  ac0 <fwrite@plt>
     e2a:	bf 01 00 00 00       	mov    $0x1,%edi
     e2f:	e8 7c fc ff ff       	callq  ab0 <exit@plt>
     e34:	48 8d 3d d2 05 00 00 	lea    0x5d2(%rip),%rdi        # 140d <FNAME+0x1cd>
     e3b:	e8 70 fb ff ff       	callq  9b0 <puts@plt>
     e40:	48 8d 3d 01 13 20 00 	lea    0x201301(%rip),%rdi        # 202148 <current_time>
     e47:	e8 84 fb ff ff       	callq  9d0 <ctime@plt>
     e4c:	48 89 05 ed 12 20 00 	mov    %rax,0x2012ed(%rip)        # 202140 <c_time_string>
     e53:	48 8b 05 e6 12 20 00 	mov    0x2012e6(%rip),%rax        # 202140 <c_time_string>
     e5a:	48 85 c0             	test   %rax,%rax
     e5d:	75 2a                	jne    e89 <populate_time_str+0xb5>
     e5f:	48 8b 05 ba 11 20 00 	mov    0x2011ba(%rip),%rax        # 202020 <stderr@@GLIBC_2.2.5>
     e66:	48 89 c1             	mov    %rax,%rcx
     e69:	ba 25 00 00 00       	mov    $0x25,%edx
     e6e:	be 01 00 00 00       	mov    $0x1,%esi
     e73:	48 8d 3d ae 05 00 00 	lea    0x5ae(%rip),%rdi        # 1428 <FNAME+0x1e8>
     e7a:	e8 41 fc ff ff       	callq  ac0 <fwrite@plt>
     e7f:	bf 01 00 00 00       	mov    $0x1,%edi
     e84:	e8 27 fc ff ff       	callq  ab0 <exit@plt>
     e89:	48 8d 3d c0 05 00 00 	lea    0x5c0(%rip),%rdi        # 1450 <FNAME+0x210>
     e90:	e8 1b fb ff ff       	callq  9b0 <puts@plt>
     e95:	48 8b 15 a4 12 20 00 	mov    0x2012a4(%rip),%rdx        # 202140 <c_time_string>
     e9c:	48 8b 45 f8          	mov    -0x8(%rbp),%rax
     ea0:	48 8d 35 c8 05 00 00 	lea    0x5c8(%rip),%rsi        # 146f <FNAME+0x22f>
     ea7:	48 89 c7             	mov    %rax,%rdi
     eaa:	b8 00 00 00 00       	mov    $0x0,%eax
     eaf:	e8 ec fb ff ff       	callq  aa0 <sprintf@plt>
     eb4:	90                   	nop
     eb5:	c9                   	leaveq 
     eb6:	c3                   	retq   

0000000000000eb7 <explode_bomb>:
     eb7:	55                   	push   %rbp
     eb8:	48 89 e5             	mov    %rsp,%rbp
     ebb:	48 83 ec 10          	sub    $0x10,%rsp
     ebf:	89 7d fc             	mov    %edi,-0x4(%rbp)
     ec2:	48 8d 3d c7 05 00 00 	lea    0x5c7(%rip),%rdi        # 1490 <FNAME+0x250>
     ec9:	e8 e2 fa ff ff       	callq  9b0 <puts@plt>
     ece:	48 8d 3d e0 05 00 00 	lea    0x5e0(%rip),%rdi        # 14b5 <FNAME+0x275>
     ed5:	e8 d6 fa ff ff       	callq  9b0 <puts@plt>
     eda:	48 8d 3d 5f 11 20 00 	lea    0x20115f(%rip),%rdi        # 202040 <outMsg>
     ee1:	e8 ee fe ff ff       	callq  dd4 <populate_time_str>
     ee6:	48 8d 3d dd 05 00 00 	lea    0x5dd(%rip),%rdi        # 14ca <FNAME+0x28a>
     eed:	e8 be fa ff ff       	callq  9b0 <puts@plt>
     ef2:	8b 45 fc             	mov    -0x4(%rbp),%eax
     ef5:	48 8d 35 44 11 20 00 	lea    0x201144(%rip),%rsi        # 202040 <outMsg>
     efc:	89 c7                	mov    %eax,%edi
     efe:	e8 af fd ff ff       	callq  cb2 <WriteStr>
     f03:	90                   	nop
     f04:	c9                   	leaveq 
     f05:	c3                   	retq   

0000000000000f06 <secret_sequence>:
     f06:	55                   	push   %rbp
     f07:	48 89 e5             	mov    %rsp,%rbp
     f0a:	89 7d ec             	mov    %edi,-0x14(%rbp)
     f0d:	c7 45 fc 01 00 00 00 	movl   $0x1,-0x4(%rbp)
     f14:	eb 2e                	jmp    f44 <secret_sequence+0x3e>
     f16:	83 45 fc 01          	addl   $0x1,-0x4(%rbp)
     f1a:	8b 45 ec             	mov    -0x14(%rbp),%eax
     f1d:	83 e0 01             	and    $0x1,%eax
     f20:	85 c0                	test   %eax,%eax
     f22:	75 11                	jne    f35 <secret_sequence+0x2f>
     f24:	8b 45 ec             	mov    -0x14(%rbp),%eax
     f27:	89 c2                	mov    %eax,%edx
     f29:	c1 ea 1f             	shr    $0x1f,%edx
     f2c:	01 d0                	add    %edx,%eax
     f2e:	d1 f8                	sar    %eax
     f30:	89 45 ec             	mov    %eax,-0x14(%rbp)
     f33:	eb 0f                	jmp    f44 <secret_sequence+0x3e>
     f35:	8b 55 ec             	mov    -0x14(%rbp),%edx
     f38:	89 d0                	mov    %edx,%eax
     f3a:	01 c0                	add    %eax,%eax
     f3c:	01 d0                	add    %edx,%eax
     f3e:	83 c0 01             	add    $0x1,%eax
     f41:	89 45 ec             	mov    %eax,-0x14(%rbp)
     f44:	83 7d ec 01          	cmpl   $0x1,-0x14(%rbp)
     f48:	7f cc                	jg     f16 <secret_sequence+0x10>
     f4a:	8b 45 fc             	mov    -0x4(%rbp),%eax
     f4d:	5d                   	pop    %rbp
     f4e:	c3                   	retq   

0000000000000f4f <main>:
     f4f:	55                   	push   %rbp
     f50:	48 89 e5             	mov    %rsp,%rbp
     f53:	48 83 ec 30          	sub    $0x30,%rsp
     f57:	89 7d dc             	mov    %edi,-0x24(%rbp)
     f5a:	48 89 75 d0          	mov    %rsi,-0x30(%rbp)
     f5e:	48 8d 3d db 02 00 00 	lea    0x2db(%rip),%rdi        # 1240 <FNAME>
     f65:	e8 f1 fd ff ff       	callq  d5b <create_or_append_for_writing>
     f6a:	89 45 e4             	mov    %eax,-0x1c(%rbp)
     f6d:	48 8d 05 68 05 00 00 	lea    0x568(%rip),%rax        # 14dc <FNAME+0x29c>
     f74:	48 89 45 f0          	mov    %rax,-0x10(%rbp)
     f78:	48 8b 45 f0          	mov    -0x10(%rbp),%rax
     f7c:	48 8d 35 63 05 00 00 	lea    0x563(%rip),%rsi        # 14e6 <FNAME+0x2a6>
     f83:	48 89 c7             	mov    %rax,%rdi
     f86:	e8 e5 fa ff ff       	callq  a70 <fopen@plt>
     f8b:	48 89 45 f8          	mov    %rax,-0x8(%rbp)
     f8f:	48 83 7d f8 00       	cmpq   $0x0,-0x8(%rbp)
     f94:	75 2c                	jne    fc2 <main+0x73>
     f96:	48 8b 45 f0          	mov    -0x10(%rbp),%rax
     f9a:	48 89 c6             	mov    %rax,%rsi
     f9d:	48 8d 3d 44 05 00 00 	lea    0x544(%rip),%rdi        # 14e8 <FNAME+0x2a8>
     fa4:	b8 00 00 00 00       	mov    $0x0,%eax
     fa9:	e8 52 fa ff ff       	callq  a00 <printf@plt>
     fae:	8b 45 e4             	mov    -0x1c(%rbp),%eax
     fb1:	89 c7                	mov    %eax,%edi
     fb3:	e8 ff fe ff ff       	callq  eb7 <explode_bomb>
     fb8:	b8 01 00 00 00       	mov    $0x1,%eax
     fbd:	e9 a3 00 00 00       	jmpq   1065 <main+0x116>
     fc2:	48 8d 3d 38 05 00 00 	lea    0x538(%rip),%rdi        # 1501 <FNAME+0x2c1>
     fc9:	b8 00 00 00 00       	mov    $0x0,%eax
     fce:	e8 2d fa ff ff       	callq  a00 <printf@plt>
     fd3:	48 8b 45 f8          	mov    -0x8(%rbp),%rax
     fd7:	48 89 c2             	mov    %rax,%rdx
     fda:	48 8d 35 57 10 20 00 	lea    0x201057(%rip),%rsi        # 202038 <len>
     fe1:	48 8d 3d 48 10 20 00 	lea    0x201048(%rip),%rdi        # 202030 <line>
     fe8:	e8 a3 fa ff ff       	callq  a90 <getline@plt>
     fed:	48 8b 05 3c 10 20 00 	mov    0x20103c(%rip),%rax        # 202030 <line>
     ff4:	48 89 c7             	mov    %rax,%rdi
     ff7:	e8 84 fa ff ff       	callq  a80 <atoi@plt>
     ffc:	89 45 e8             	mov    %eax,-0x18(%rbp)
     fff:	8b 45 e8             	mov    -0x18(%rbp),%eax
    1002:	89 c6                	mov    %eax,%esi
    1004:	48 8d 3d 09 05 00 00 	lea    0x509(%rip),%rdi        # 1514 <FNAME+0x2d4>
    100b:	b8 00 00 00 00       	mov    $0x0,%eax
    1010:	e8 eb f9 ff ff       	callq  a00 <printf@plt>
    1015:	8b 45 e8             	mov    -0x18(%rbp),%eax
    1018:	89 c7                	mov    %eax,%edi
    101a:	e8 e7 fe ff ff       	callq  f06 <secret_sequence>
    101f:	89 45 ec             	mov    %eax,-0x14(%rbp)
    1022:	83 7d ec 06          	cmpl   $0x6,-0x14(%rbp)
    1026:	75 0e                	jne    1036 <main+0xe7>
    1028:	48 8d 3d e9 04 00 00 	lea    0x4e9(%rip),%rdi        # 1518 <FNAME+0x2d8>
    102f:	e8 7c f9 ff ff       	callq  9b0 <puts@plt>
    1034:	eb 20                	jmp    1056 <main+0x107>
    1036:	8b 45 ec             	mov    -0x14(%rbp),%eax
    1039:	89 c6                	mov    %eax,%esi
    103b:	48 8d 3d e6 04 00 00 	lea    0x4e6(%rip),%rdi        # 1528 <FNAME+0x2e8>
    1042:	b8 00 00 00 00       	mov    $0x0,%eax
    1047:	e8 b4 f9 ff ff       	callq  a00 <printf@plt>
    104c:	8b 45 e4             	mov    -0x1c(%rbp),%eax
    104f:	89 c7                	mov    %eax,%edi
    1051:	e8 61 fe ff ff       	callq  eb7 <explode_bomb>
    1056:	8b 45 e4             	mov    -0x1c(%rbp),%eax
    1059:	89 c7                	mov    %eax,%edi
    105b:	e8 25 fc ff ff       	callq  c85 <Close>
    1060:	b8 00 00 00 00       	mov    $0x0,%eax
    1065:	c9                   	leaveq 
    1066:	c3                   	retq   
    1067:	66 0f 1f 84 00 00 00 	nopw   0x0(%rax,%rax,1)
    106e:	00 00 

0000000000001070 <__libc_csu_init>:
    1070:	41 57                	push   %r15
    1072:	41 56                	push   %r14
    1074:	49 89 d7             	mov    %rdx,%r15
    1077:	41 55                	push   %r13
    1079:	41 54                	push   %r12
    107b:	4c 8d 25 9e 0c 20 00 	lea    0x200c9e(%rip),%r12        # 201d20 <__frame_dummy_init_array_entry>
    1082:	55                   	push   %rbp
    1083:	48 8d 2d 9e 0c 20 00 	lea    0x200c9e(%rip),%rbp        # 201d28 <__init_array_end>
    108a:	53                   	push   %rbx
    108b:	41 89 fd             	mov    %edi,%r13d
    108e:	49 89 f6             	mov    %rsi,%r14
    1091:	4c 29 e5             	sub    %r12,%rbp
    1094:	48 83 ec 08          	sub    $0x8,%rsp
    1098:	48 c1 fd 03          	sar    $0x3,%rbp
    109c:	e8 d7 f8 ff ff       	callq  978 <_init>
    10a1:	48 85 ed             	test   %rbp,%rbp
    10a4:	74 20                	je     10c6 <__libc_csu_init+0x56>
    10a6:	31 db                	xor    %ebx,%ebx
    10a8:	0f 1f 84 00 00 00 00 	nopl   0x0(%rax,%rax,1)
    10af:	00 
    10b0:	4c 89 fa             	mov    %r15,%rdx
    10b3:	4c 89 f6             	mov    %r14,%rsi
    10b6:	44 89 ef             	mov    %r13d,%edi
    10b9:	41 ff 14 dc          	callq  *(%r12,%rbx,8)
    10bd:	48 83 c3 01          	add    $0x1,%rbx
    10c1:	48 39 dd             	cmp    %rbx,%rbp
    10c4:	75 ea                	jne    10b0 <__libc_csu_init+0x40>
    10c6:	48 83 c4 08          	add    $0x8,%rsp
    10ca:	5b                   	pop    %rbx
    10cb:	5d                   	pop    %rbp
    10cc:	41 5c                	pop    %r12
    10ce:	41 5d                	pop    %r13
    10d0:	41 5e                	pop    %r14
    10d2:	41 5f                	pop    %r15
    10d4:	c3                   	retq   
    10d5:	90                   	nop
    10d6:	66 2e 0f 1f 84 00 00 	nopw   %cs:0x0(%rax,%rax,1)
    10dd:	00 00 00 

00000000000010e0 <__libc_csu_fini>:
    10e0:	f3 c3                	repz retq 
    10e2:	66 2e 0f 1f 84 00 00 	nopw   %cs:0x0(%rax,%rax,1)
    10e9:	00 00 00 
    10ec:	0f 1f 40 00          	nopl   0x0(%rax)

00000000000010f0 <__stat>:
    10f0:	48 89 f2             	mov    %rsi,%rdx
    10f3:	48 89 fe             	mov    %rdi,%rsi
    10f6:	bf 01 00 00 00       	mov    $0x1,%edi
    10fb:	e9 50 f9 ff ff       	jmpq   a50 <__xstat@plt>

Disassembly of section .fini:

0000000000001100 <_fini>:
    1100:	48 83 ec 08          	sub    $0x8,%rsp
    1104:	48 83 c4 08          	add    $0x8,%rsp
    1108:	c3                   	retq   
